target datalayout = "e-m:e-p270:32:32-p271:32:32-p272:64:64-i64:64-i128:128-f80:128-n8:16:32:64-S128"
target triple = "x86_64-pc-linux-gnu"

%struct.rpc_state = type { ptr, ptr, ptr, ptr, ptr, ptr, ptr, i64, i64, i64, i32, i32, i32, i8 }

@.str.1 = private unnamed_addr constant [14 x i8] c"remote-curl.c\00", align 1
@.str.92 = private unnamed_addr constant [59 x i8] c"The entire rpc->buf should be larger than LARGE_PACKET_MAX\00", align 1

; Function Attrs: nounwind uwtable
define internal i64 @rpc_out(ptr noundef %0, i64 noundef %1, i64 noundef %2, ptr noundef %3) #0 {
  %5 = alloca i64, align 8
  %6 = alloca ptr, align 8
  %7 = alloca i64, align 8
  %8 = alloca i64, align 8
  %9 = alloca ptr, align 8
  %10 = alloca i64, align 8
  %11 = alloca ptr, align 8
  %12 = alloca i64, align 8
  %13 = alloca i32, align 4
  %14 = alloca i32, align 4
  store ptr %0, ptr %6, align 8, !tbaa !153
  store i64 %1, ptr %7, align 8, !tbaa !33
  store i64 %2, ptr %8, align 8, !tbaa !33
  store ptr %3, ptr %9, align 8, !tbaa !153
  call void @llvm.lifetime.start.p0(i64 8, ptr %10) #10
  %15 = load i64, ptr %7, align 8, !tbaa !33
  %16 = load i64, ptr %8, align 8, !tbaa !33
  %17 = mul i64 %15, %16
  store i64 %17, ptr %10, align 8, !tbaa !33
  call void @llvm.lifetime.start.p0(i64 8, ptr %11) #10
  %18 = load ptr, ptr %9, align 8, !tbaa !153
  store ptr %18, ptr %11, align 8, !tbaa !116
  call void @llvm.lifetime.start.p0(i64 8, ptr %12) #10
  %19 = load ptr, ptr %11, align 8, !tbaa !116
  %20 = getelementptr inbounds nuw %struct.rpc_state, ptr %19, i32 0, i32 8
  %21 = load i64, ptr %20, align 8, !tbaa !70
  %22 = load ptr, ptr %11, align 8, !tbaa !116
  %23 = getelementptr inbounds nuw %struct.rpc_state, ptr %22, i32 0, i32 9
  %24 = load i64, ptr %23, align 8, !tbaa !71
  %25 = sub i64 %21, %24
  store i64 %25, ptr %12, align 8, !tbaa !33
  call void @llvm.lifetime.start.p0(i64 4, ptr %13) #10
  %26 = load i64, ptr %12, align 8, !tbaa !33
  %27 = icmp ne i64 %26, 0
  br i1 %27, label %61, label %28

28:                                               ; preds = %4
  %29 = load ptr, ptr %11, align 8, !tbaa !116
  %30 = getelementptr inbounds nuw %struct.rpc_state, ptr %29, i32 0, i32 13
  %31 = load i8, ptr %30, align 4
  %32 = and i8 %31, -3
  %33 = or i8 %32, 0
  store i8 %33, ptr %30, align 4
  %34 = load ptr, ptr %11, align 8, !tbaa !116
  %35 = getelementptr inbounds nuw %struct.rpc_state, ptr %34, i32 0, i32 8
  store i64 0, ptr %35, align 8, !tbaa !70
  %36 = load ptr, ptr %11, align 8, !tbaa !116
  %37 = getelementptr inbounds nuw %struct.rpc_state, ptr %36, i32 0, i32 9
  store i64 0, ptr %37, align 8, !tbaa !71
  %38 = load ptr, ptr %11, align 8, !tbaa !116
  %39 = getelementptr inbounds nuw %struct.rpc_state, ptr %38, i32 0, i32 13
  %40 = load i8, ptr %39, align 4
  %41 = lshr i8 %40, 3
  %42 = and i8 %41, 1
  %43 = zext i8 %42 to i32
  %44 = icmp ne i32 %43, 0
  br i1 %44, label %60, label %45

45:                                               ; preds = %28
  %46 = load ptr, ptr %11, align 8, !tbaa !116
  %47 = call i32 @rpc_read_from_out(ptr noundef %46, i32 noundef 0, ptr noundef %12, ptr noundef %13)
  %48 = icmp ne i32 %47, 0
  br i1 %48, label %50, label %49

49:                                               ; preds = %45
  call void (ptr, i32, ptr, ...) @BUG_fl(ptr noundef @.str.1, i32 noundef 707, ptr noundef @.str.92) #11
  unreachable

50:                                               ; preds = %45
  %51 = load i32, ptr %13, align 4, !tbaa !4
  %52 = icmp eq i32 %51, 2
  br i1 %52, label %53, label %59

53:                                               ; preds = %50
  %54 = load ptr, ptr %11, align 8, !tbaa !116
  %55 = getelementptr inbounds nuw %struct.rpc_state, ptr %54, i32 0, i32 13
  %56 = load i8, ptr %55, align 4
  %57 = and i8 %56, -9
  %58 = or i8 %57, 8
  store i8 %58, ptr %55, align 4
  br label %59

59:                                               ; preds = %53, %50
  br label %60

60:                                               ; preds = %59, %28
  br label %61

61:                                               ; preds = %60, %4
  %62 = load ptr, ptr %11, align 8, !tbaa !116
  %63 = getelementptr inbounds nuw %struct.rpc_state, ptr %62, i32 0, i32 13
  %64 = load i8, ptr %63, align 4
  %65 = lshr i8 %64, 3
  %66 = and i8 %65, 1
  %67 = zext i8 %66 to i32
  %68 = icmp ne i32 %67, 0
  br i1 %68, label %69, label %79

69:                                               ; preds = %61
  %70 = load i64, ptr %12, align 8, !tbaa !33
  %71 = icmp ne i64 %70, 0
  br i1 %71, label %78, label %72

72:                                               ; preds = %69
  %73 = load ptr, ptr %11, align 8, !tbaa !116
  %74 = getelementptr inbounds nuw %struct.rpc_state, ptr %73, i32 0, i32 13
  %75 = load i8, ptr %74, align 4
  %76 = and i8 %75, -9
  %77 = or i8 %76, 0
  store i8 %77, ptr %74, align 4
  store i64 0, ptr %5, align 8
  store i32 1, ptr %14, align 4
  br label %101

78:                                               ; preds = %69
  br label %79

79:                                               ; preds = %78, %61
  %80 = load i64, ptr %10, align 8, !tbaa !33
  %81 = load i64, ptr %12, align 8, !tbaa !33
  %82 = icmp ult i64 %80, %81
  br i1 %82, label %83, label %85

83:                                               ; preds = %79
  %84 = load i64, ptr %10, align 8, !tbaa !33
  store i64 %84, ptr %12, align 8, !tbaa !33
  br label %85

85:                                               ; preds = %83, %79
  %86 = load ptr, ptr %6, align 8, !tbaa !153
  %87 = load ptr, ptr %11, align 8, !tbaa !116
  %88 = getelementptr inbounds nuw %struct.rpc_state, ptr %87, i32 0, i32 6
  %89 = load ptr, ptr %88, align 8, !tbaa !68
  %90 = load ptr, ptr %11, align 8, !tbaa !116
  %91 = getelementptr inbounds nuw %struct.rpc_state, ptr %90, i32 0, i32 9
  %92 = load i64, ptr %91, align 8, !tbaa !71
  %93 = getelementptr inbounds nuw i8, ptr %89, i64 %92
  %94 = load i64, ptr %12, align 8, !tbaa !33
  call void @llvm.memcpy.p0.p0.i64(ptr align 1 %86, ptr align 1 %93, i64 %94, i1 false)
  %95 = load i64, ptr %12, align 8, !tbaa !33
  %96 = load ptr, ptr %11, align 8, !tbaa !116
  %97 = getelementptr inbounds nuw %struct.rpc_state, ptr %96, i32 0, i32 9
  %98 = load i64, ptr %97, align 8, !tbaa !71
  %99 = add i64 %98, %95
  store i64 %99, ptr %97, align 8, !tbaa !71
  %100 = load i64, ptr %12, align 8, !tbaa !33
  store i64 %100, ptr %5, align 8
  store i32 1, ptr %14, align 4
  br label %101

101:                                              ; preds = %85, %72
  call void @llvm.lifetime.end.p0(i64 4, ptr %13) #10
  call void @llvm.lifetime.end.p0(i64 8, ptr %12) #10
  call void @llvm.lifetime.end.p0(i64 8, ptr %11) #10
  call void @llvm.lifetime.end.p0(i64 8, ptr %10) #10
  %102 = load i64, ptr %5, align 8
  ret i64 %102
}