; Function Attrs: nounwind uwtable
define internal i64 @rpc_out(ptr noundef writeonly captures(none) %0, i64 noundef %1, i64 noundef %2, ptr noundef captures(none) %3) #0 {
  %5 = alloca i64, align 8
  %6 = alloca i32, align 4
  %7 = mul i64 %2, %1
  call void @llvm.lifetime.start.p0(i64 8, ptr nonnull %5) #17
  %8 = getelementptr inbounds nuw i8, ptr %3, i64 64
  %9 = load i64, ptr %8, align 8, !tbaa !95
  %10 = getelementptr inbounds nuw i8, ptr %3, i64 72
  %11 = load i64, ptr %10, align 8, !tbaa !117
  %12 = sub i64 %9, %11
  store i64 %12, ptr %5, align 8, !tbaa !81
  call void @llvm.lifetime.start.p0(i64 4, ptr nonnull %6) #17
  %.not = icmp eq i64 %9, %11
  br i1 %.not, label %13, label %27

13:                                               ; preds = %4
  %14 = getelementptr inbounds nuw i8, ptr %3, i64 92
  %15 = load i8, ptr %14, align 4
  %16 = and i8 %15, -3
  store i8 %16, ptr %14, align 4
  %17 = and i8 %15, 8
  %.not21 = icmp eq i8 %17, 0
  tail call void @llvm.memset.p0.i64(ptr noundef nonnull align 8 dereferenceable(16) %8, i8 0, i64 16, i1 false)
  br i1 %.not21, label %18, label %27

18:                                               ; preds = %13
  %19 = call fastcc i32 @rpc_read_from_out(ptr noundef nonnull %3, i32 noundef 0, ptr noundef %5, ptr noundef %6)
  %.not22 = icmp eq i32 %19, 0
  br i1 %.not22, label %20, label %21

20:                                               ; preds = %18
  tail call void (ptr, i32, ptr, ...) @BUG_fl(ptr noundef nonnull @.str.1, i32 noundef 707, ptr noundef nonnull @.str.92) #18
  unreachable

21:                                               ; preds = %18
  %22 = load i32, ptr %6, align 4, !tbaa !4
  %23 = icmp eq i32 %22, 2
  br i1 %23, label %24, label %27

24:                                               ; preds = %21
  %25 = load i8, ptr %14, align 4
  %26 = or i8 %25, 8
  store i8 %26, ptr %14, align 4
  br label %27

27:                                               ; preds = %13, %24, %21, %4
  %28 = getelementptr inbounds nuw i8, ptr %3, i64 92
  %29 = load i8, ptr %28, align 4
  %30 = and i8 %29, 8
  %31 = icmp eq i8 %30, 0
  %32 = load i64, ptr %5, align 8
  %33 = icmp ne i64 %32, 0
  %or.cond = select i1 %31, i1 true, i1 %33
  br i1 %or.cond, label %36, label %34

34:                                               ; preds = %27
  %35 = and i8 %29, -9
  store i8 %35, ptr %28, align 4
  br label %43

36:                                               ; preds = %27
  %spec.select = tail call i64 @llvm.umin.i64(i64 %7, i64 %32)
  %37 = getelementptr inbounds nuw i8, ptr %3, i64 48
  %38 = load ptr, ptr %37, align 8, !tbaa !88
  %39 = load i64, ptr %10, align 8, !tbaa !117
  %40 = getelementptr inbounds nuw i8, ptr %38, i64 %39
  tail call void @llvm.memcpy.p0.p0.i64(ptr align 1 %0, ptr align 1 %40, i64 %spec.select, i1 false)
  %41 = load i64, ptr %10, align 8, !tbaa !117
  %42 = add i64 %41, %spec.select
  store i64 %42, ptr %10, align 8, !tbaa !117
  br label %43

43:                                               ; preds = %36, %34
  %.0 = phi i64 [ %spec.select, %36 ], [ 0, %34 ]
  call void @llvm.lifetime.end.p0(i64 4, ptr nonnull %6) #17
  call void @llvm.lifetime.end.p0(i64 8, ptr nonnull %5) #17
  ret i64 %.0
}